target datalayout = "e-m:e-p270:32:32-p271:32:32-p272:64:64-i64:64-i128:128-f80:128-n8:16:32:64-S128"
target triple = "x86_64-pc-linux-gnu"

%struct.loose_object_map = type { ptr, ptr }
%struct.kh_oid_map = type { i32, i32, i32, i32, ptr, ptr, ptr }

; Function Attrs: inlinehint nounwind uwtable
define internal void @kh_release_oid_map(ptr noundef %0) #3 {
  %2 = alloca ptr, align 8
  store ptr %0, ptr %2, align 8, !tbaa !76
  %3 = load ptr, ptr %2, align 8, !tbaa !76
  %4 = getelementptr inbounds nuw %struct.kh_oid_map, ptr %3, i32 0, i32 4
  %5 = load ptr, ptr %4, align 8, !tbaa !80
  call void @free(ptr noundef %5) #11
  %6 = load ptr, ptr %2, align 8, !tbaa !76
  %7 = getelementptr inbounds nuw %struct.kh_oid_map, ptr %6, i32 0, i32 5
  %8 = load ptr, ptr %7, align 8, !tbaa !81
  call void @free(ptr noundef %8) #11
  %9 = load ptr, ptr %2, align 8, !tbaa !76
  %10 = getelementptr inbounds nuw %struct.kh_oid_map, ptr %9, i32 0, i32 6
  %11 = load ptr, ptr %10, align 8, !tbaa !82
  call void @free(ptr noundef %11) #11
  ret void
}

; Function Attrs: inlinehint nounwind uwtable
define internal void @kh_destroy_oid_map(ptr noundef %0) #3 {
  %2 = alloca ptr, align 8
  store ptr %0, ptr %2, align 8, !tbaa !76
  %3 = load ptr, ptr %2, align 8, !tbaa !76
  %4 = icmp ne ptr %3, null
  br i1 %4, label %5, label %8

5:                                                ; preds = %1
  %6 = load ptr, ptr %2, align 8, !tbaa !76
  call void @kh_release_oid_map(ptr noundef %6)
  %7 = load ptr, ptr %2, align 8, !tbaa !76
  call void @free(ptr noundef %7) #11
  br label %8

8:                                                ; preds = %5, %1
  ret void
}

; Function Attrs: nounwind uwtable
define dso_local void @loose_object_map_clear(ptr noundef %0) #0 {
  %2 = alloca ptr, align 8
  %3 = alloca ptr, align 8
  %4 = alloca ptr, align 8
  %5 = alloca i32, align 4
  %6 = alloca i32, align 4
  %7 = alloca i32, align 4
  store ptr %0, ptr %2, align 8, !tbaa !4
  call void @llvm.lifetime.start.p0(i64 8, ptr %3) #11
  %8 = load ptr, ptr %2, align 8, !tbaa !4
  %9 = load ptr, ptr %8, align 8, !tbaa !9
  store ptr %9, ptr %3, align 8, !tbaa !9
  call void @llvm.lifetime.start.p0(i64 8, ptr %4) #11
  %10 = load ptr, ptr %3, align 8, !tbaa !9
  %11 = icmp ne ptr %10, null
  br i1 %11, label %13, label %12

12:                                               ; preds = %1
  store i32 1, ptr %5, align 4
  br label %104

13:                                               ; preds = %1
  call void @llvm.lifetime.start.p0(i64 4, ptr %6) #11
  store i32 0, ptr %6, align 4, !tbaa !71
  br label %14

14:                                               ; preds = %51, %13
  %15 = load i32, ptr %6, align 4, !tbaa !71
  %16 = load ptr, ptr %3, align 8, !tbaa !9
  %17 = getelementptr inbounds nuw %struct.loose_object_map, ptr %16, i32 0, i32 0
  %18 = load ptr, ptr %17, align 8, !tbaa !11
  %19 = getelementptr inbounds nuw %struct.kh_oid_map, ptr %18, i32 0, i32 0
  %20 = load i32, ptr %19, align 8, !tbaa !77
  %21 = icmp ne i32 %15, %20
  br i1 %21, label %22, label %54

22:                                               ; preds = %14
  %23 = load ptr, ptr %3, align 8, !tbaa !9
  %24 = getelementptr inbounds nuw %struct.loose_object_map, ptr %23, i32 0, i32 0
  %25 = load ptr, ptr %24, align 8, !tbaa !11
  %26 = getelementptr inbounds nuw %struct.kh_oid_map, ptr %25, i32 0, i32 4
  %27 = load ptr, ptr %26, align 8, !tbaa !80
  %28 = load i32, ptr %6, align 4, !tbaa !71
  %29 = lshr i32 %28, 4
  %30 = zext i32 %29 to i64
  %31 = getelementptr inbounds nuw i32, ptr %27, i64 %30
  %32 = load i32, ptr %31, align 4, !tbaa !71
  %33 = load i32, ptr %6, align 4, !tbaa !71
  %34 = and i32 %33, 15
  %35 = shl i32 %34, 1
  %36 = lshr i32 %32, %35
  %37 = and i32 %36, 3
  %38 = icmp ne i32 %37, 0
  br i1 %38, label %39, label %40

39:                                               ; preds = %22
  br label %51

40:                                               ; preds = %22
  %41 = load ptr, ptr %3, align 8, !tbaa !9
  %42 = getelementptr inbounds nuw %struct.loose_object_map, ptr %41, i32 0, i32 0
  %43 = load ptr, ptr %42, align 8, !tbaa !11
  %44 = getelementptr inbounds nuw %struct.kh_oid_map, ptr %43, i32 0, i32 6
  %45 = load ptr, ptr %44, align 8, !tbaa !82
  %46 = load i32, ptr %6, align 4, !tbaa !71
  %47 = zext i32 %46 to i64
  %48 = getelementptr inbounds nuw ptr, ptr %45, i64 %47
  %49 = load ptr, ptr %48, align 8, !tbaa !83
  store ptr %49, ptr %4, align 8, !tbaa !88
  %50 = load ptr, ptr %4, align 8, !tbaa !88
  call void @free(ptr noundef %50) #11
  br label %51

51:                                               ; preds = %40, %39
  %52 = load i32, ptr %6, align 4, !tbaa !71
  %53 = add i32 %52, 1
  store i32 %53, ptr %6, align 4, !tbaa !71
  br label %14, !llvm.loop !101

54:                                               ; preds = %14
  call void @llvm.lifetime.end.p0(i64 4, ptr %6) #11
  call void @llvm.lifetime.start.p0(i64 4, ptr %7) #11
  store i32 0, ptr %7, align 4, !tbaa !71
  br label %55

55:                                               ; preds = %92, %54
  %56 = load i32, ptr %7, align 4, !tbaa !71
  %57 = load ptr, ptr %3, align 8, !tbaa !9
  %58 = getelementptr inbounds nuw %struct.loose_object_map, ptr %57, i32 0, i32 1
  %59 = load ptr, ptr %58, align 8, !tbaa !14
  %60 = getelementptr inbounds nuw %struct.kh_oid_map, ptr %59, i32 0, i32 0
  %61 = load i32, ptr %60, align 8, !tbaa !77
  %62 = icmp ne i32 %56, %61
  br i1 %62, label %63, label %95

63:                                               ; preds = %55
  %64 = load ptr, ptr %3, align 8, !tbaa !9
  %65 = getelementptr inbounds nuw %struct.loose_object_map, ptr %64, i32 0, i32 1
  %66 = load ptr, ptr %65, align 8, !tbaa !14
  %67 = getelementptr inbounds nuw %struct.kh_oid_map, ptr %66, i32 0, i32 4
  %68 = load ptr, ptr %67, align 8, !tbaa !80
  %69 = load i32, ptr %7, align 4, !tbaa !71
  %70 = lshr i32 %69, 4
  %71 = zext i32 %70 to i64
  %72 = getelementptr inbounds nuw i32, ptr %68, i64 %71
  %73 = load i32, ptr %72, align 4, !tbaa !71
  %74 = load i32, ptr %7, align 4, !tbaa !71
  %75 = and i32 %74, 15
  %76 = shl i32 %75, 1
  %77 = lshr i32 %73, %76
  %78 = and i32 %77, 3
  %79 = icmp ne i32 %78, 0
  br i1 %79, label %80, label %81

80:                                               ; preds = %63
  br label %92

81:                                               ; preds = %63
  %82 = load ptr, ptr %3, align 8, !tbaa !9
  %83 = getelementptr inbounds nuw %struct.loose_object_map, ptr %82, i32 0, i32 1
  %84 = load ptr, ptr %83, align 8, !tbaa !14
  %85 = getelementptr inbounds nuw %struct.kh_oid_map, ptr %84, i32 0, i32 6
  %86 = load ptr, ptr %85, align 8, !tbaa !82
  %87 = load i32, ptr %7, align 4, !tbaa !71
  %88 = zext i32 %87 to i64
  %89 = getelementptr inbounds nuw ptr, ptr %86, i64 %88
  %90 = load ptr, ptr %89, align 8, !tbaa !83
  store ptr %90, ptr %4, align 8, !tbaa !88
  %91 = load ptr, ptr %4, align 8, !tbaa !88
  call void @free(ptr noundef %91) #11
  br label %92

92:                                               ; preds = %81, %80
  %93 = load i32, ptr %7, align 4, !tbaa !71
  %94 = add i32 %93, 1
  store i32 %94, ptr %7, align 4, !tbaa !71
  br label %55, !llvm.loop !102

95:                                               ; preds = %55
  call void @llvm.lifetime.end.p0(i64 4, ptr %7) #11
  %96 = load ptr, ptr %3, align 8, !tbaa !9
  %97 = getelementptr inbounds nuw %struct.loose_object_map, ptr %96, i32 0, i32 0
  %98 = load ptr, ptr %97, align 8, !tbaa !11
  call void @kh_destroy_oid_map(ptr noundef %98)
  %99 = load ptr, ptr %3, align 8, !tbaa !9
  %100 = getelementptr inbounds nuw %struct.loose_object_map, ptr %99, i32 0, i32 1
  %101 = load ptr, ptr %100, align 8, !tbaa !14
  call void @kh_destroy_oid_map(ptr noundef %101)
  %102 = load ptr, ptr %3, align 8, !tbaa !9
  call void @free(ptr noundef %102) #11
  %103 = load ptr, ptr %2, align 8, !tbaa !4
  store ptr null, ptr %103, align 8, !tbaa !9
  store i32 0, ptr %5, align 4
  br label %104

104:                                              ; preds = %95, %12
  call void @llvm.lifetime.end.p0(i64 8, ptr %4) #11
  call void @llvm.lifetime.end.p0(i64 8, ptr %3) #11
  %105 = load i32, ptr %5, align 4
  switch i32 %105, label %107 [
    i32 0, label %106
    i32 1, label %106
  ]

106:                                              ; preds = %104, %104
  ret void

107:                                              ; preds = %104
  unreachable
}