; Function Attrs: nounwind uwtable
define dso_local void @loose_object_map_clear(ptr noundef captures(none) %0) local_unnamed_addr #0 {
  %2 = load ptr, ptr %0, align 8, !tbaa !11
  %.not = icmp eq ptr %2, null
  br i1 %.not, label %67, label %.preheader31

.preheader31:                                     ; preds = %1
  %3 = load ptr, ptr %2, align 8, !tbaa !4
  %4 = load i32, ptr %3, align 8, !tbaa !68
  %.not2532 = icmp eq i32 %4, 0
  br i1 %.not2532, label %.preheader, label %.lr.ph

.preheader:                                       ; preds = %27, %.preheader31
  %5 = phi ptr [ %3, %.preheader31 ], [ %29, %27 ]
  %6 = getelementptr inbounds nuw i8, ptr %2, i64 8
  %7 = load ptr, ptr %6, align 8, !tbaa !10
  %8 = load i32, ptr %7, align 8, !tbaa !68
  %.not2634 = icmp eq i32 %8, 0
  br i1 %.not2634, label %kh_destroy_oid_map.exit, label %.lr.ph36

.lr.ph:                                           ; preds = %.preheader31, %27
  %9 = phi i32 [ %28, %27 ], [ %4, %.preheader31 ]
  %10 = phi ptr [ %29, %27 ], [ %3, %.preheader31 ]
  %.02333 = phi i32 [ %30, %27 ], [ 0, %.preheader31 ]
  %11 = getelementptr inbounds nuw i8, ptr %10, i64 16
  %12 = load ptr, ptr %11, align 8, !tbaa !71
  %13 = lshr i32 %.02333, 4
  %14 = zext nneg i32 %13 to i64
  %15 = getelementptr inbounds nuw i32, ptr %12, i64 %14
  %16 = load i32, ptr %15, align 4, !tbaa !50
  %17 = shl i32 %.02333, 1
  %18 = and i32 %17, 30
  %19 = shl nuw i32 3, %18
  %20 = and i32 %16, %19
  %.not28 = icmp eq i32 %20, 0
  br i1 %.not28, label %21, label %27

21:                                               ; preds = %.lr.ph
  %22 = getelementptr inbounds nuw i8, ptr %10, i64 32
  %23 = load ptr, ptr %22, align 8, !tbaa !73
  %24 = zext i32 %.02333 to i64
  %25 = getelementptr inbounds nuw ptr, ptr %23, i64 %24
  %26 = load ptr, ptr %25, align 8, !tbaa !74
  tail call void @free(ptr noundef %26) #15
  %.pre = load ptr, ptr %2, align 8, !tbaa !4
  %.pre37 = load i32, ptr %.pre, align 8, !tbaa !68
  br label %27

27:                                               ; preds = %.lr.ph, %21
  %28 = phi i32 [ %9, %.lr.ph ], [ %.pre37, %21 ]
  %29 = phi ptr [ %10, %.lr.ph ], [ %.pre, %21 ]
  %30 = add i32 %.02333, 1
  %.not25 = icmp eq i32 %30, %28
  br i1 %.not25, label %.preheader, label %.lr.ph, !llvm.loop !85

.lr.ph36:                                         ; preds = %.preheader, %49
  %31 = phi i32 [ %50, %49 ], [ %8, %.preheader ]
  %32 = phi ptr [ %51, %49 ], [ %7, %.preheader ]
  %.035 = phi i32 [ %52, %49 ], [ 0, %.preheader ]
  %33 = getelementptr inbounds nuw i8, ptr %32, i64 16
  %34 = load ptr, ptr %33, align 8, !tbaa !71
  %35 = lshr i32 %.035, 4
  %36 = zext nneg i32 %35 to i64
  %37 = getelementptr inbounds nuw i32, ptr %34, i64 %36
  %38 = load i32, ptr %37, align 4, !tbaa !50
  %39 = shl i32 %.035, 1
  %40 = and i32 %39, 30
  %41 = shl nuw i32 3, %40
  %42 = and i32 %38, %41
  %.not27 = icmp eq i32 %42, 0
  br i1 %.not27, label %43, label %49

43:                                               ; preds = %.lr.ph36
  %44 = getelementptr inbounds nuw i8, ptr %32, i64 32
  %45 = load ptr, ptr %44, align 8, !tbaa !73
  %46 = zext i32 %.035 to i64
  %47 = getelementptr inbounds nuw ptr, ptr %45, i64 %46
  %48 = load ptr, ptr %47, align 8, !tbaa !74
  tail call void @free(ptr noundef %48) #15
  %.pre38 = load ptr, ptr %6, align 8, !tbaa !10
  %.pre39 = load i32, ptr %.pre38, align 8, !tbaa !68
  br label %49

49:                                               ; preds = %.lr.ph36, %43
  %50 = phi i32 [ %31, %.lr.ph36 ], [ %.pre39, %43 ]
  %51 = phi ptr [ %32, %.lr.ph36 ], [ %.pre38, %43 ]
  %52 = add i32 %.035, 1
  %.not26 = icmp eq i32 %52, %50
  br i1 %.not26, label %._crit_edge, label %.lr.ph36, !llvm.loop !86

._crit_edge:                                      ; preds = %49
  %.pre40 = load ptr, ptr %2, align 8, !tbaa !4
  %.not.i = icmp eq ptr %.pre40, null
  br i1 %.not.i, label %kh_destroy_oid_map.exit.thread, label %kh_destroy_oid_map.exit

kh_destroy_oid_map.exit:                          ; preds = %.preheader, %._crit_edge
  %53 = phi ptr [ %.pre40, %._crit_edge ], [ %5, %.preheader ]
  %54 = getelementptr inbounds nuw i8, ptr %53, i64 16
  %55 = load ptr, ptr %54, align 8, !tbaa !71
  tail call void @free(ptr noundef %55) #15
  %56 = getelementptr inbounds nuw i8, ptr %53, i64 24
  %57 = load ptr, ptr %56, align 8, !tbaa !72
  tail call void @free(ptr noundef %57) #15
  %58 = getelementptr inbounds nuw i8, ptr %53, i64 32
  %59 = load ptr, ptr %58, align 8, !tbaa !73
  tail call void @free(ptr noundef %59) #15
  tail call void @free(ptr noundef nonnull %53) #15
  %.pre41 = load ptr, ptr %6, align 8, !tbaa !10
  %.not.i29 = icmp eq ptr %.pre41, null
  br i1 %.not.i29, label %kh_destroy_oid_map.exit30, label %kh_destroy_oid_map.exit.thread

kh_destroy_oid_map.exit.thread:                   ; preds = %._crit_edge, %kh_destroy_oid_map.exit
  %60 = phi ptr [ %.pre41, %kh_destroy_oid_map.exit ], [ %51, %._crit_edge ]
  %61 = getelementptr inbounds nuw i8, ptr %60, i64 16
  %62 = load ptr, ptr %61, align 8, !tbaa !71
  tail call void @free(ptr noundef %62) #15
  %63 = getelementptr inbounds nuw i8, ptr %60, i64 24
  %64 = load ptr, ptr %63, align 8, !tbaa !72
  tail call void @free(ptr noundef %64) #15
  %65 = getelementptr inbounds nuw i8, ptr %60, i64 32
  %66 = load ptr, ptr %65, align 8, !tbaa !73
  tail call void @free(ptr noundef %66) #15
  tail call void @free(ptr noundef nonnull %60) #15
  br label %kh_destroy_oid_map.exit30

kh_destroy_oid_map.exit30:                        ; preds = %kh_destroy_oid_map.exit, %kh_destroy_oid_map.exit.thread
  tail call void @free(ptr noundef nonnull %2) #15
  store ptr null, ptr %0, align 8, !tbaa !11
  br label %67

67:                                               ; preds = %1, %kh_destroy_oid_map.exit30
  ret void
}